; Function Attrs: mustprogress uwtable
define dso_local noundef zeroext i1 @_ZN12cmWorkerPool7ProcessEPv(ptr nocapture noundef nonnull align 8 dereferenceable(24) %0, ptr noundef %1) local_unnamed_addr #0 align 2 {
  store ptr %1, ptr %0, align 8
  %3 = getelementptr inbounds i8, ptr %0, i64 16
  %4 = load ptr, ptr %3, align 8
  %5 = getelementptr inbounds i8, ptr %4, i64 80
  store i8 1, ptr %5, align 8
  %6 = getelementptr inbounds i8, ptr %4, i64 81
  store i8 0, ptr %6, align 1
  %7 = getelementptr inbounds i8, ptr %4, i64 8
  %8 = load ptr, ptr %4, align 8
  %9 = tail call noundef i32 @_ZN2cm12uv_async_ptr4initER9uv_loop_sPFvP10uv_async_sEPv(ptr noundef nonnull align 8 dereferenceable(16) %7, ptr noundef nonnull align 8 dereferenceable(848) %8, ptr noundef nonnull @_ZN20cmWorkerPoolInternal11UVSlotBeginEP10uv_async_s, ptr noundef nonnull %4)
  %10 = getelementptr inbounds i8, ptr %4, i64 24
  %11 = load ptr, ptr %4, align 8
  %12 = tail call noundef i32 @_ZN2cm12uv_async_ptr4initER9uv_loop_sPFvP10uv_async_sEPv(ptr noundef nonnull align 8 dereferenceable(16) %10, ptr noundef nonnull align 8 dereferenceable(848) %11, ptr noundef nonnull @_ZN20cmWorkerPoolInternal9UVSlotEndEP10uv_async_s, ptr noundef nonnull %4)
  tail call void @_ZN2cm12uv_async_ptr4sendEv(ptr noundef nonnull align 8 dereferenceable(16) %7)
  %13 = load ptr, ptr %4, align 8
  %14 = tail call i32 @uv_run(ptr noundef %13, i32 noundef 0)
  %15 = icmp eq i32 %14, 0
  store i8 0, ptr %5, align 8
  store i8 0, ptr %6, align 1
  store ptr null, ptr %0, align 8
  ret i1 %15
}